target datalayout = "e-m:e-p270:32:32-p271:32:32-p272:64:64-i64:64-i128:128-f80:128-n8:16:32:64-S128"
target triple = "x86_64-pc-linux-gnu"

%"class.pxrInternal_v0_24__pxrReserved__::TfEnum" = type <{ ptr, i32, [4 x i8] }>
%"class.std::__cxx11::basic_string" = type { %"struct.std::__cxx11::basic_string<char>::_Alloc_hider", i64, %union.anon }
%"struct.std::__cxx11::basic_string<char>::_Alloc_hider" = type { ptr }
%union.anon = type { i64, [8 x i8] }
%"class.pxrInternal_v0_24__pxrReserved__::TfDiagnosticBase" = type <{ %"class.pxrInternal_v0_24__pxrReserved__::TfCallContext", %"class.std::__cxx11::basic_string", %"class.pxrInternal_v0_24__pxrReserved__::TfEnum", %"class.std::__cxx11::basic_string", %"class.std::any", i64, i8, [7 x i8] }>
%"class.pxrInternal_v0_24__pxrReserved__::TfCallContext" = type <{ ptr, ptr, i64, ptr, i8, [7 x i8] }>
%"class.std::any" = type { ptr, %"union.std::any::_Storage" }
%"union.std::any::_Storage" = type { ptr }

@_ZTIi = external constant ptr

; Function Attrs: noreturn nounwind uwtable
define linkonce_odr hidden void @__clang_call_terminate(ptr noundef %0) #5 comdat {
  %2 = call ptr @__cxa_begin_catch(ptr %0) #7
  call void @_ZSt9terminatev() #8
  unreachable
}

; Function Attrs: mustprogress nounwind uwtable
define linkonce_odr void @_ZNSt3any8_StorageC2Ev(ptr noundef nonnull align 8 dereferenceable(8) %0) unnamed_addr #3 comdat align 2 {
  %2 = alloca ptr, align 8
  store ptr %0, ptr %2, align 8
  %3 = load ptr, ptr %2, align 8
  store ptr null, ptr %3, align 8
  ret void
}

; Function Attrs: mustprogress nounwind uwtable
define linkonce_odr void @_ZNSt3anyC2Ev(ptr noundef nonnull align 8 dereferenceable(16) %0) unnamed_addr #3 comdat align 2 personality ptr @__gxx_personality_v0 {
  %2 = alloca ptr, align 8
  store ptr %0, ptr %2, align 8
  %3 = load ptr, ptr %2, align 8
  %4 = getelementptr inbounds nuw %"class.std::any", ptr %3, i32 0, i32 0
  store ptr null, ptr %4, align 8
  %5 = getelementptr inbounds nuw %"class.std::any", ptr %3, i32 0, i32 1
  invoke void @_ZNSt3any8_StorageC2Ev(ptr noundef nonnull align 8 dereferenceable(8) %5)
          to label %6 unwind label %7

6:                                                ; preds = %1
  ret void

7:                                                ; preds = %1
  %8 = landingpad { ptr, i32 }
          catch ptr null
  %9 = extractvalue { ptr, i32 } %8, 0
  call void @__clang_call_terminate(ptr %9) #8
  unreachable
}

; Function Attrs: mustprogress nounwind uwtable
define linkonce_odr void @_ZN32pxrInternal_v0_24__pxrReserved__6TfEnumC2Ev(ptr noundef nonnull align 8 dereferenceable(12) %0) unnamed_addr #3 comdat align 2 {
  %2 = alloca ptr, align 8
  store ptr %0, ptr %2, align 8
  %3 = load ptr, ptr %2, align 8
  %4 = getelementptr inbounds nuw %"class.pxrInternal_v0_24__pxrReserved__::TfEnum", ptr %3, i32 0, i32 0
  store ptr @_ZTIi, ptr %4, align 8
  %5 = getelementptr inbounds nuw %"class.pxrInternal_v0_24__pxrReserved__::TfEnum", ptr %3, i32 0, i32 1
  store i32 0, ptr %5, align 8
  ret void
}

; Function Attrs: mustprogress uwtable
define void @_ZN32pxrInternal_v0_24__pxrReserved__16TfDiagnosticBaseC2ENS_6TfEnumEPKcRKNS_13TfCallContextERKNSt7__cxx1112basic_stringIcSt11char_traitsIcESaIcEEESt3anyb(ptr noundef nonnull align 8 dereferenceable(145) %0, ptr %1, i32 %2, ptr noundef %3, ptr noundef nonnull align 8 dereferenceable(33) %4, ptr noundef nonnull align 8 dereferenceable(32) %5, ptr noundef %6, i1 noundef zeroext %7) unnamed_addr #0 align 2 personality ptr @__gxx_personality_v0 {
  %9 = alloca %"class.pxrInternal_v0_24__pxrReserved__::TfEnum", align 8
  %10 = alloca ptr, align 8
  %11 = alloca ptr, align 8
  %12 = alloca ptr, align 8
  %13 = alloca ptr, align 8
  %14 = alloca ptr, align 8
  %15 = alloca i8, align 1
  %16 = alloca ptr, align 8
  %17 = alloca i32, align 4
  %18 = alloca %"class.std::__cxx11::basic_string", align 8
  %19 = alloca %"class.pxrInternal_v0_24__pxrReserved__::TfEnum", align 8
  %20 = alloca %"class.std::__cxx11::basic_string", align 8
  %21 = getelementptr inbounds nuw { ptr, i32 }, ptr %9, i32 0, i32 0
  store ptr %1, ptr %21, align 8
  %22 = getelementptr inbounds nuw { ptr, i32 }, ptr %9, i32 0, i32 1
  store i32 %2, ptr %22, align 8
  store ptr %0, ptr %10, align 8
  store ptr %3, ptr %11, align 8
  store ptr %4, ptr %12, align 8
  store ptr %5, ptr %13, align 8
  store ptr %6, ptr %14, align 8
  %23 = zext i1 %7 to i8
  store i8 %23, ptr %15, align 1
  %24 = load ptr, ptr %10, align 8
  %25 = getelementptr inbounds nuw %"class.pxrInternal_v0_24__pxrReserved__::TfDiagnosticBase", ptr %24, i32 0, i32 0
  %26 = load ptr, ptr %12, align 8
  call void @llvm.memcpy.p0.p0.i64(ptr align 8 %25, ptr align 8 %26, i64 40, i1 false)
  %27 = getelementptr inbounds nuw %"class.pxrInternal_v0_24__pxrReserved__::TfDiagnosticBase", ptr %24, i32 0, i32 1
  call void @_ZNSt7__cxx1112basic_stringIcSt11char_traitsIcESaIcEEC1Ev(ptr noundef nonnull align 8 dereferenceable(32) %27) #7
  %28 = getelementptr inbounds nuw %"class.pxrInternal_v0_24__pxrReserved__::TfDiagnosticBase", ptr %24, i32 0, i32 2
  invoke void @_ZN32pxrInternal_v0_24__pxrReserved__6TfEnumC2Ev(ptr noundef nonnull align 8 dereferenceable(12) %28)
          to label %29 unwind label %60

29:                                               ; preds = %8
  %30 = getelementptr inbounds nuw %"class.pxrInternal_v0_24__pxrReserved__::TfDiagnosticBase", ptr %24, i32 0, i32 3
  call void @_ZNSt7__cxx1112basic_stringIcSt11char_traitsIcESaIcEEC1Ev(ptr noundef nonnull align 8 dereferenceable(32) %30) #7
  %31 = getelementptr inbounds nuw %"class.pxrInternal_v0_24__pxrReserved__::TfDiagnosticBase", ptr %24, i32 0, i32 4
  call void @_ZNSt3anyC2Ev(ptr noundef nonnull align 8 dereferenceable(16) %31) #7
  %32 = getelementptr inbounds nuw %"class.pxrInternal_v0_24__pxrReserved__::TfDiagnosticBase", ptr %24, i32 0, i32 5
  store i64 0, ptr %32, align 8
  %33 = getelementptr inbounds nuw %"class.pxrInternal_v0_24__pxrReserved__::TfDiagnosticBase", ptr %24, i32 0, i32 6
  store i8 0, ptr %33, align 8
  %34 = load ptr, ptr %13, align 8
  %35 = getelementptr inbounds nuw %"class.pxrInternal_v0_24__pxrReserved__::TfDiagnosticBase", ptr %24, i32 0, i32 1
  %36 = invoke noundef nonnull align 8 dereferenceable(32) ptr @_ZNSt7__cxx1112basic_stringIcSt11char_traitsIcESaIcEEaSERKS4_(ptr noundef nonnull align 8 dereferenceable(32) %35, ptr noundef nonnull align 8 dereferenceable(32) %34)
          to label %37 unwind label %64

37:                                               ; preds = %29
  %38 = getelementptr inbounds nuw %"class.pxrInternal_v0_24__pxrReserved__::TfDiagnosticBase", ptr %24, i32 0, i32 2
  call void @llvm.memcpy.p0.p0.i64(ptr align 8 %38, ptr align 8 %9, i64 12, i1 false)
  call void @llvm.memcpy.p0.p0.i64(ptr align 8 %19, ptr align 8 %9, i64 16, i1 false)
  %39 = getelementptr inbounds nuw { ptr, i32 }, ptr %19, i32 0, i32 0
  %40 = load ptr, ptr %39, align 8
  %41 = getelementptr inbounds nuw { ptr, i32 }, ptr %19, i32 0, i32 1
  %42 = load i32, ptr %41, align 8
  invoke void @_ZN32pxrInternal_v0_24__pxrReserved__6TfEnum7GetNameB5cxx11ES0_(ptr dead_on_unwind writable sret(%"class.std::__cxx11::basic_string") align 8 %18, ptr %40, i32 %42)
          to label %43 unwind label %64

43:                                               ; preds = %37
  %44 = getelementptr inbounds nuw %"class.pxrInternal_v0_24__pxrReserved__::TfDiagnosticBase", ptr %24, i32 0, i32 3
  %45 = call noundef nonnull align 8 dereferenceable(32) ptr @_ZNSt7__cxx1112basic_stringIcSt11char_traitsIcESaIcEEaSEOS4_(ptr noundef nonnull align 8 dereferenceable(32) %44, ptr noundef nonnull align 8 dereferenceable(32) %18) #7
  call void @_ZNSt7__cxx1112basic_stringIcSt11char_traitsIcESaIcEED1Ev(ptr noundef nonnull align 8 dereferenceable(32) %18) #7
  %46 = getelementptr inbounds nuw %"class.pxrInternal_v0_24__pxrReserved__::TfDiagnosticBase", ptr %24, i32 0, i32 4
  %47 = invoke noundef nonnull align 8 dereferenceable(16) ptr @_ZNSt3anyaSERKS_(ptr noundef nonnull align 8 dereferenceable(16) %46, ptr noundef nonnull align 8 dereferenceable(16) %6)
          to label %48 unwind label %64

48:                                               ; preds = %43
  %49 = load i8, ptr %15, align 1
  %50 = trunc i8 %49 to i1
  %51 = getelementptr inbounds nuw %"class.pxrInternal_v0_24__pxrReserved__::TfDiagnosticBase", ptr %24, i32 0, i32 6
  %52 = zext i1 %50 to i8
  store i8 %52, ptr %51, align 8
  %53 = getelementptr inbounds nuw %"class.pxrInternal_v0_24__pxrReserved__::TfDiagnosticBase", ptr %24, i32 0, i32 3
  %54 = call noundef zeroext i1 @_ZNKSt7__cxx1112basic_stringIcSt11char_traitsIcESaIcEE5emptyEv(ptr noundef nonnull align 8 dereferenceable(32) %53) #7
  br i1 %54, label %55, label %68

55:                                               ; preds = %48
  %56 = load ptr, ptr %11, align 8
  invoke void @_ZN32pxrInternal_v0_24__pxrReserved__12TfSafeStringB5cxx11EPKc(ptr dead_on_unwind writable sret(%"class.std::__cxx11::basic_string") align 8 %20, ptr noundef %56)
          to label %57 unwind label %64

57:                                               ; preds = %55
  %58 = getelementptr inbounds nuw %"class.pxrInternal_v0_24__pxrReserved__::TfDiagnosticBase", ptr %24, i32 0, i32 3
  %59 = call noundef nonnull align 8 dereferenceable(32) ptr @_ZNSt7__cxx1112basic_stringIcSt11char_traitsIcESaIcEEaSEOS4_(ptr noundef nonnull align 8 dereferenceable(32) %58, ptr noundef nonnull align 8 dereferenceable(32) %20) #7
  call void @_ZNSt7__cxx1112basic_stringIcSt11char_traitsIcESaIcEED1Ev(ptr noundef nonnull align 8 dereferenceable(32) %20) #7
  br label %68

60:                                               ; preds = %8
  %61 = landingpad { ptr, i32 }
          cleanup
  %62 = extractvalue { ptr, i32 } %61, 0
  store ptr %62, ptr %16, align 8
  %63 = extractvalue { ptr, i32 } %61, 1
  store i32 %63, ptr %17, align 4
  br label %69

64:                                               ; preds = %55, %43, %37, %29
  %65 = landingpad { ptr, i32 }
          cleanup
  %66 = extractvalue { ptr, i32 } %65, 0
  store ptr %66, ptr %16, align 8
  %67 = extractvalue { ptr, i32 } %65, 1
  store i32 %67, ptr %17, align 4
  call void @_ZNSt3anyD2Ev(ptr noundef nonnull align 8 dereferenceable(16) %31) #7
  call void @_ZNSt7__cxx1112basic_stringIcSt11char_traitsIcESaIcEED1Ev(ptr noundef nonnull align 8 dereferenceable(32) %30) #7
  br label %69

68:                                               ; preds = %57, %48
  ret void

69:                                               ; preds = %64, %60
  call void @_ZNSt7__cxx1112basic_stringIcSt11char_traitsIcESaIcEED1Ev(ptr noundef nonnull align 8 dereferenceable(32) %27) #7
  br label %70

70:                                               ; preds = %69
  %71 = load ptr, ptr %16, align 8
  %72 = load i32, ptr %17, align 4
  %73 = insertvalue { ptr, i32 } poison, ptr %71, 0
  %74 = insertvalue { ptr, i32 } %73, i32 %72, 1
  resume { ptr, i32 } %74
}