; Function Attrs: mustprogress uwtable
define void @_ZN32pxrInternal_v0_24__pxrReserved__16TfDiagnosticBaseC2ENS_6TfEnumEPKcRKNS_13TfCallContextERKNSt7__cxx1112basic_stringIcSt11char_traitsIcESaIcEEESt3anyb(ptr noundef nonnull align 8 dereferenceable(145) %0, ptr %1, i32 %2, ptr noundef %3, ptr nocapture noundef nonnull readonly align 8 dereferenceable(33) %4, ptr noundef nonnull align 8 dereferenceable(32) %5, ptr noundef %6, i1 noundef zeroext %7) unnamed_addr #0 align 2 personality ptr @__gxx_personality_v0 {
  %9 = alloca %"class.std::__cxx11::basic_string", align 8
  %10 = alloca %"class.std::__cxx11::basic_string", align 8
  %11 = zext i1 %7 to i8
  tail call void @llvm.memcpy.p0.p0.i64(ptr noundef nonnull align 8 dereferenceable(40) %0, ptr noundef nonnull align 8 dereferenceable(40) %4, i64 40, i1 false)
  %12 = getelementptr inbounds nuw i8, ptr %0, i64 40
  tail call void @_ZNSt7__cxx1112basic_stringIcSt11char_traitsIcESaIcEEC1Ev(ptr noundef nonnull align 8 dereferenceable(32) %12) #11
  %13 = getelementptr inbounds nuw i8, ptr %0, i64 72
  store ptr @_ZTIi, ptr %13, align 8
  %14 = getelementptr inbounds i8, ptr %0, i64 80
  store i32 0, ptr %14, align 8
  %15 = getelementptr inbounds nuw i8, ptr %0, i64 88
  tail call void @_ZNSt7__cxx1112basic_stringIcSt11char_traitsIcESaIcEEC1Ev(ptr noundef nonnull align 8 dereferenceable(32) %15) #11
  %16 = getelementptr inbounds nuw i8, ptr %0, i64 120
  %17 = getelementptr inbounds nuw i8, ptr %0, i64 144
  tail call void @llvm.memset.p0.i64(ptr noundef nonnull align 8 dereferenceable(25) %16, i8 0, i64 25, i1 false)
  %18 = invoke noundef nonnull align 8 dereferenceable(32) ptr @_ZNSt7__cxx1112basic_stringIcSt11char_traitsIcESaIcEEaSERKS4_(ptr noundef nonnull align 8 dereferenceable(32) %12, ptr noundef nonnull align 8 dereferenceable(32) %5)
          to label %19 unwind label %28

19:                                               ; preds = %8
  store ptr %1, ptr %13, align 8
  store i32 %2, ptr %14, align 8
  invoke void @_ZN32pxrInternal_v0_24__pxrReserved__6TfEnum7GetNameB5cxx11ES0_(ptr dead_on_unwind nonnull writable sret(%"class.std::__cxx11::basic_string") align 8 %9, ptr %1, i32 %2)
          to label %20 unwind label %28

20:                                               ; preds = %19
  %21 = call noundef nonnull align 8 dereferenceable(32) ptr @_ZNSt7__cxx1112basic_stringIcSt11char_traitsIcESaIcEEaSEOS4_(ptr noundef nonnull align 8 dereferenceable(32) %15, ptr noundef nonnull align 8 dereferenceable(32) %9) #11
  call void @_ZNSt7__cxx1112basic_stringIcSt11char_traitsIcESaIcEED1Ev(ptr noundef nonnull align 8 dereferenceable(32) %9) #11
  %22 = invoke noundef nonnull align 8 dereferenceable(16) ptr @_ZNSt3anyaSERKS_(ptr noundef nonnull align 8 dereferenceable(16) %16, ptr noundef nonnull align 8 dereferenceable(16) %6)
          to label %23 unwind label %28

23:                                               ; preds = %20
  store i8 %11, ptr %17, align 8
  %24 = call noundef zeroext i1 @_ZNKSt7__cxx1112basic_stringIcSt11char_traitsIcESaIcEE5emptyEv(ptr noundef nonnull align 8 dereferenceable(32) %15) #11
  br i1 %24, label %25, label %30

25:                                               ; preds = %23
  invoke void @_ZN32pxrInternal_v0_24__pxrReserved__12TfSafeStringB5cxx11EPKc(ptr dead_on_unwind nonnull writable sret(%"class.std::__cxx11::basic_string") align 8 %10, ptr noundef %3)
          to label %26 unwind label %28

26:                                               ; preds = %25
  %27 = call noundef nonnull align 8 dereferenceable(32) ptr @_ZNSt7__cxx1112basic_stringIcSt11char_traitsIcESaIcEEaSEOS4_(ptr noundef nonnull align 8 dereferenceable(32) %15, ptr noundef nonnull align 8 dereferenceable(32) %10) #11
  call void @_ZNSt7__cxx1112basic_stringIcSt11char_traitsIcESaIcEED1Ev(ptr noundef nonnull align 8 dereferenceable(32) %10) #11
  br label %30

28:                                               ; preds = %25, %20, %19, %8
  %29 = landingpad { ptr, i32 }
          cleanup
  call void @_ZNSt3anyD2Ev(ptr noundef nonnull align 8 dereferenceable(16) %16) #11
  call void @_ZNSt7__cxx1112basic_stringIcSt11char_traitsIcESaIcEED1Ev(ptr noundef nonnull align 8 dereferenceable(32) %15) #11
  call void @_ZNSt7__cxx1112basic_stringIcSt11char_traitsIcESaIcEED1Ev(ptr noundef nonnull align 8 dereferenceable(32) %12) #11
  resume { ptr, i32 } %29

30:                                               ; preds = %26, %23
  ret void
}